target datalayout = "e-m:e-p270:32:32-p271:32:32-p272:64:64-i64:64-i128:128-f80:128-n8:16:32:64-S128"
target triple = "x86_64-pc-linux-gnu"

%struct._zend_executor_globals = type { %struct._zval_struct, %struct._zval_struct, [32 x ptr], ptr, ptr, %struct._zend_array, %struct._zend_array, ptr, i32, i32, ptr, ptr, ptr, ptr, ptr, ptr, i64, ptr, ptr, i32, i32, i64, i32, i32, i32, i8, i8, %struct.zend_atomic_bool_s, %struct.zend_atomic_bool_s, ptr, i64, ptr, ptr, %struct._zend_array, %struct._zend_array, i32, i8, %struct._zval_struct, %struct._zval_struct, %struct._zend_stack, %struct._zend_stack, %struct._zend_stack, ptr, i32, i32, i64, ptr, ptr, ptr, %struct._zend_objects_store, ptr, ptr, ptr, [3 x %struct._zend_op], ptr, i8, i8, i64, i32, i32, ptr, [16 x %struct._HashTableIterator], ptr, %union._zend_function, %struct._zend_op, %struct._zend_array, i64, %struct.zend_get_gc_buffer, ptr, ptr, ptr, i64, i8, i32, ptr, ptr, i64, %struct._zend_call_stack, i64, i64, [6 x ptr] }
%struct.zend_atomic_bool_s = type { i8 }
%struct._zval_struct = type { %union._zend_value, %union.anon, %union.anon.2 }
%union._zend_value = type { i64 }
%union.anon = type { i32 }
%union.anon.2 = type { i32 }
%struct._zend_stack = type { i32, i32, i32, ptr }
%struct._zend_objects_store = type { ptr, i32, i32, i32 }
%struct._HashTableIterator = type { ptr, i32, i32 }
%union._zend_function = type { %struct._zend_op_array }
%struct._zend_op_array = type { i8, [3 x i8], i32, ptr, ptr, ptr, i32, i32, ptr, ptr, ptr, ptr, i32, i32, i32, i32, ptr, ptr, ptr, ptr, ptr, i32, i32, ptr, ptr, ptr, i32, i32, i32, i32, ptr, ptr, [6 x ptr] }
%struct._zend_op = type { ptr, %union._znode_op, %union._znode_op, %union._znode_op, i32, i32, i8, i8, i8, i8 }
%union._znode_op = type { i32 }
%struct._zend_array = type { %struct._zend_refcounted_h, %union.anon.4, i32, %union.anon.6, i32, i32, i32, i32, i64, ptr }
%struct._zend_refcounted_h = type { i32, %union.anon.3 }
%union.anon.3 = type { i32 }
%union.anon.4 = type { i32 }
%union.anon.6 = type { ptr }
%struct.zend_get_gc_buffer = type { ptr, ptr, ptr }
%struct._zend_call_stack = type { ptr, i64 }
%struct._zend_execute_data = type { ptr, ptr, ptr, ptr, %struct._zval_struct, ptr, ptr, ptr, ptr }
%struct._xmlNode = type { ptr, i32, ptr, ptr, ptr, ptr, ptr, ptr, ptr, ptr, ptr, ptr, ptr, ptr, i16, i16 }
%struct._xmlNs = type { ptr, i32, ptr, ptr, ptr, ptr }
%struct._zend_string = type { %struct._zend_refcounted_h, i64, i64, [1 x i8] }
%struct._xmlAttr = type { ptr, i32, ptr, ptr, ptr, ptr, ptr, ptr, ptr, ptr, i32, ptr }
%struct._dom_object = type { ptr, ptr, ptr, %struct._zend_object }
%struct._zend_object = type { %struct._zend_refcounted_h, i32, ptr, ptr, ptr, [1 x %struct._zval_struct] }
%struct._zend_class_entry = type { i8, ptr, %union.anon.8, i32, i32, i32, i32, ptr, ptr, ptr, %struct._zend_array, %struct._zend_array, %struct._zend_array, ptr, ptr, ptr, ptr, ptr, ptr, ptr, ptr, ptr, ptr, ptr, ptr, ptr, ptr, ptr, ptr, ptr, ptr, ptr, %union.anon.9, ptr, ptr, ptr, ptr, i32, i32, %union.anon.10, ptr, ptr, ptr, ptr, i32, ptr, ptr, %union.anon.11 }
%union.anon.8 = type { ptr }
%union.anon.9 = type { ptr }
%union.anon.10 = type { ptr }
%union.anon.11 = type { %struct.anon.12 }
%struct.anon.12 = type { ptr, i32, i32 }
%struct._php_libxml_node_ptr = type { ptr, i32, ptr }

@executor_globals = external global %struct._zend_executor_globals, align 8
@.str.5 = private unnamed_addr constant [18 x i8] c"Couldn't fetch %s\00", align 1
@.str.10 = private unnamed_addr constant [2 x i8] c"O\00", align 1
@dom_attr_class_entry = external global ptr, align 8

; Function Attrs: nounwind uwtable
define internal ptr @php_dom_obj_from_obj(ptr noundef %0) #0 {
  %2 = alloca ptr, align 8
  store ptr %0, ptr %2, align 8
  %3 = load ptr, ptr %2, align 8
  %4 = getelementptr inbounds i8, ptr %3, i64 -24
  ret ptr %4
}

; Function Attrs: nounwind uwtable
define hidden void @zim_DOMElement_setAttributeNodeNS(ptr noundef %0, ptr noundef %1) #0 {
  %3 = alloca ptr, align 8
  %4 = alloca ptr, align 8
  %5 = alloca ptr, align 8
  %6 = alloca ptr, align 8
  %7 = alloca ptr, align 8
  %8 = alloca ptr, align 8
  %9 = alloca ptr, align 8
  %10 = alloca ptr, align 8
  %11 = alloca ptr, align 8
  %12 = alloca ptr, align 8
  %13 = alloca ptr, align 8
  %14 = alloca i32, align 4
  store ptr %0, ptr %3, align 8
  store ptr %1, ptr %4, align 8
  store ptr null, ptr %10, align 8
  %15 = load ptr, ptr %3, align 8
  %16 = getelementptr inbounds %struct._zend_execute_data, ptr %15, i32 0, i32 4
  store ptr %16, ptr %5, align 8
  %17 = load ptr, ptr %3, align 8
  %18 = getelementptr inbounds %struct._zend_execute_data, ptr %17, i32 0, i32 4
  %19 = getelementptr inbounds %struct._zval_struct, ptr %18, i32 0, i32 2
  %20 = load i32, ptr %19, align 4
  %21 = load ptr, ptr @dom_attr_class_entry, align 8
  %22 = call i32 (i32, ptr, ...) @zend_parse_parameters(i32 noundef %20, ptr noundef @.str.10, ptr noundef %6, ptr noundef %21)
  %23 = icmp eq i32 %22, -1
  br i1 %23, label %24, label %29

24:                                               ; preds = %2
  br label %25

25:                                               ; preds = %24
  %26 = load ptr, ptr getelementptr inbounds (%struct._zend_executor_globals, ptr @executor_globals, i32 0, i32 50), align 8
  %27 = icmp ne ptr %26, null
  call void @llvm.assume(i1 %27)
  br label %214

28:                                               ; No predecessors!
  br label %29

29:                                               ; preds = %28, %2
  %30 = load ptr, ptr %5, align 8
  %31 = getelementptr inbounds %struct._zval_struct, ptr %30, i32 0, i32 0
  %32 = load ptr, ptr %31, align 8
  %33 = call ptr @php_dom_obj_from_obj(ptr noundef %32)
  store ptr %33, ptr %11, align 8
  %34 = load ptr, ptr %11, align 8
  %35 = getelementptr inbounds %struct._dom_object, ptr %34, i32 0, i32 0
  %36 = load ptr, ptr %35, align 8
  %37 = icmp eq ptr %36, null
  %38 = xor i1 %37, true
  %39 = xor i1 %38, true
  %40 = zext i1 %39 to i32
  %41 = sext i32 %40 to i64
  %42 = icmp ne i64 %41, 0
  br i1 %42, label %43, label %56

43:                                               ; preds = %29
  %44 = load ptr, ptr %11, align 8
  %45 = getelementptr inbounds %struct._dom_object, ptr %44, i32 0, i32 3
  %46 = getelementptr inbounds %struct._zend_object, ptr %45, i32 0, i32 2
  %47 = load ptr, ptr %46, align 8
  %48 = getelementptr inbounds %struct._zend_class_entry, ptr %47, i32 0, i32 1
  %49 = load ptr, ptr %48, align 8
  %50 = getelementptr inbounds %struct._zend_string, ptr %49, i32 0, i32 3
  %51 = getelementptr inbounds [1 x i8], ptr %50, i64 0, i64 0
  call void (ptr, ptr, ...) @zend_throw_error(ptr noundef null, ptr noundef @.str.5, ptr noundef %51)
  br label %52

52:                                               ; preds = %43
  %53 = load ptr, ptr getelementptr inbounds (%struct._zend_executor_globals, ptr @executor_globals, i32 0, i32 50), align 8
  %54 = icmp ne ptr %53, null
  call void @llvm.assume(i1 %54)
  br label %214

55:                                               ; No predecessors!
  br label %56

56:                                               ; preds = %55, %29
  %57 = load ptr, ptr %11, align 8
  %58 = getelementptr inbounds %struct._dom_object, ptr %57, i32 0, i32 0
  %59 = load ptr, ptr %58, align 8
  %60 = getelementptr inbounds %struct._php_libxml_node_ptr, ptr %59, i32 0, i32 0
  %61 = load ptr, ptr %60, align 8
  store ptr %61, ptr %7, align 8
  %62 = load ptr, ptr %6, align 8
  %63 = getelementptr inbounds %struct._zval_struct, ptr %62, i32 0, i32 0
  %64 = load ptr, ptr %63, align 8
  %65 = call ptr @php_dom_obj_from_obj(ptr noundef %64)
  store ptr %65, ptr %12, align 8
  %66 = load ptr, ptr %12, align 8
  %67 = getelementptr inbounds %struct._dom_object, ptr %66, i32 0, i32 0
  %68 = load ptr, ptr %67, align 8
  %69 = icmp eq ptr %68, null
  %70 = xor i1 %69, true
  %71 = xor i1 %70, true
  %72 = zext i1 %71 to i32
  %73 = sext i32 %72 to i64
  %74 = icmp ne i64 %73, 0
  br i1 %74, label %75, label %88

75:                                               ; preds = %56
  %76 = load ptr, ptr %12, align 8
  %77 = getelementptr inbounds %struct._dom_object, ptr %76, i32 0, i32 3
  %78 = getelementptr inbounds %struct._zend_object, ptr %77, i32 0, i32 2
  %79 = load ptr, ptr %78, align 8
  %80 = getelementptr inbounds %struct._zend_class_entry, ptr %79, i32 0, i32 1
  %81 = load ptr, ptr %80, align 8
  %82 = getelementptr inbounds %struct._zend_string, ptr %81, i32 0, i32 3
  %83 = getelementptr inbounds [1 x i8], ptr %82, i64 0, i64 0
  call void (ptr, ptr, ...) @zend_throw_error(ptr noundef null, ptr noundef @.str.5, ptr noundef %83)
  br label %84

84:                                               ; preds = %75
  %85 = load ptr, ptr getelementptr inbounds (%struct._zend_executor_globals, ptr @executor_globals, i32 0, i32 50), align 8
  %86 = icmp ne ptr %85, null
  call void @llvm.assume(i1 %86)
  br label %214

87:                                               ; No predecessors!
  br label %88

88:                                               ; preds = %87, %56
  %89 = load ptr, ptr %12, align 8
  %90 = getelementptr inbounds %struct._dom_object, ptr %89, i32 0, i32 0
  %91 = load ptr, ptr %90, align 8
  %92 = getelementptr inbounds %struct._php_libxml_node_ptr, ptr %91, i32 0, i32 0
  %93 = load ptr, ptr %92, align 8
  store ptr %93, ptr %9, align 8
  %94 = load ptr, ptr %9, align 8
  %95 = getelementptr inbounds %struct._xmlAttr, ptr %94, i32 0, i32 1
  %96 = load i32, ptr %95, align 8
  %97 = icmp eq i32 %96, 2
  call void @llvm.assume(i1 %97)
  %98 = load ptr, ptr %9, align 8
  %99 = getelementptr inbounds %struct._xmlAttr, ptr %98, i32 0, i32 8
  %100 = load ptr, ptr %99, align 8
  %101 = icmp eq ptr %100, null
  br i1 %101, label %121, label %102

102:                                              ; preds = %88
  %103 = load ptr, ptr %9, align 8
  %104 = getelementptr inbounds %struct._xmlAttr, ptr %103, i32 0, i32 8
  %105 = load ptr, ptr %104, align 8
  %106 = load ptr, ptr %7, align 8
  %107 = getelementptr inbounds %struct._xmlNode, ptr %106, i32 0, i32 8
  %108 = load ptr, ptr %107, align 8
  %109 = icmp eq ptr %105, %108
  br i1 %109, label %121, label %110

110:                                              ; preds = %102
  %111 = load ptr, ptr %11, align 8
  %112 = getelementptr inbounds %struct._dom_object, ptr %111, i32 0, i32 1
  %113 = load ptr, ptr %112, align 8
  %114 = call i32 @dom_get_strict_error(ptr noundef %113)
  call void @php_dom_throw_error(i32 noundef 4, i32 noundef %114)
  br label %115

115:                                              ; preds = %110
  br label %116

116:                                              ; preds = %115
  %117 = load ptr, ptr %4, align 8
  %118 = getelementptr inbounds %struct._zval_struct, ptr %117, i32 0, i32 1
  store i32 2, ptr %118, align 8
  br label %119

119:                                              ; preds = %116
  br label %214

120:                                              ; No predecessors!
  br label %121

121:                                              ; preds = %120, %102, %88
  %122 = load ptr, ptr %9, align 8
  %123 = getelementptr inbounds %struct._xmlAttr, ptr %122, i32 0, i32 9
  %124 = load ptr, ptr %123, align 8
  store ptr %124, ptr %8, align 8
  %125 = load ptr, ptr %8, align 8
  %126 = icmp ne ptr %125, null
  br i1 %126, label %127, label %136

127:                                              ; preds = %121
  %128 = load ptr, ptr %7, align 8
  %129 = load ptr, ptr %9, align 8
  %130 = getelementptr inbounds %struct._xmlAttr, ptr %129, i32 0, i32 2
  %131 = load ptr, ptr %130, align 8
  %132 = load ptr, ptr %8, align 8
  %133 = getelementptr inbounds %struct._xmlNs, ptr %132, i32 0, i32 2
  %134 = load ptr, ptr %133, align 8
  %135 = call ptr @xmlHasNsProp(ptr noundef %128, ptr noundef %131, ptr noundef %134)
  store ptr %135, ptr %10, align 8
  br label %142

136:                                              ; preds = %121
  %137 = load ptr, ptr %7, align 8
  %138 = load ptr, ptr %9, align 8
  %139 = getelementptr inbounds %struct._xmlAttr, ptr %138, i32 0, i32 2
  %140 = load ptr, ptr %139, align 8
  %141 = call ptr @xmlHasProp(ptr noundef %137, ptr noundef %140)
  store ptr %141, ptr %10, align 8
  br label %142

142:                                              ; preds = %136, %127
  %143 = load ptr, ptr %10, align 8
  %144 = icmp ne ptr %143, null
  br i1 %144, label %145, label %171

145:                                              ; preds = %142
  %146 = load ptr, ptr %10, align 8
  %147 = getelementptr inbounds %struct._xmlAttr, ptr %146, i32 0, i32 1
  %148 = load i32, ptr %147, align 8
  %149 = icmp ne i32 %148, 16
  br i1 %149, label %150, label %171

150:                                              ; preds = %145
  %151 = load ptr, ptr %10, align 8
  %152 = call ptr @php_dom_object_get_data(ptr noundef %151)
  store ptr %152, ptr %13, align 8
  %153 = icmp ne ptr %152, null
  br i1 %153, label %154, label %169

154:                                              ; preds = %150
  %155 = load ptr, ptr %13, align 8
  %156 = getelementptr inbounds %struct._dom_object, ptr %155, i32 0, i32 0
  %157 = load ptr, ptr %156, align 8
  %158 = getelementptr inbounds %struct._php_libxml_node_ptr, ptr %157, i32 0, i32 0
  %159 = load ptr, ptr %158, align 8
  %160 = load ptr, ptr %9, align 8
  %161 = icmp eq ptr %159, %160
  br i1 %161, label %162, label %169

162:                                              ; preds = %154
  br label %163

163:                                              ; preds = %162
  br label %164

164:                                              ; preds = %163
  %165 = load ptr, ptr %4, align 8
  %166 = getelementptr inbounds %struct._zval_struct, ptr %165, i32 0, i32 1
  store i32 1, ptr %166, align 8
  br label %167

167:                                              ; preds = %164
  br label %214

168:                                              ; No predecessors!
  br label %169

169:                                              ; preds = %168, %154, %150
  %170 = load ptr, ptr %10, align 8
  call void @xmlUnlinkNode(ptr noundef %170)
  br label %171

171:                                              ; preds = %169, %145, %142
  %172 = load ptr, ptr %9, align 8
  %173 = getelementptr inbounds %struct._xmlAttr, ptr %172, i32 0, i32 5
  %174 = load ptr, ptr %173, align 8
  %175 = icmp ne ptr %174, null
  br i1 %175, label %176, label %178

176:                                              ; preds = %171
  %177 = load ptr, ptr %9, align 8
  call void @xmlUnlinkNode(ptr noundef %177)
  br label %178

178:                                              ; preds = %176, %171
  %179 = load ptr, ptr %9, align 8
  %180 = getelementptr inbounds %struct._xmlAttr, ptr %179, i32 0, i32 8
  %181 = load ptr, ptr %180, align 8
  %182 = icmp eq ptr %181, null
  br i1 %182, label %183, label %196

183:                                              ; preds = %178
  %184 = load ptr, ptr %7, align 8
  %185 = getelementptr inbounds %struct._xmlNode, ptr %184, i32 0, i32 8
  %186 = load ptr, ptr %185, align 8
  %187 = icmp ne ptr %186, null
  br i1 %187, label %188, label %196

188:                                              ; preds = %183
  %189 = load ptr, ptr %11, align 8
  %190 = getelementptr inbounds %struct._dom_object, ptr %189, i32 0, i32 1
  %191 = load ptr, ptr %190, align 8
  %192 = load ptr, ptr %12, align 8
  %193 = getelementptr inbounds %struct._dom_object, ptr %192, i32 0, i32 1
  store ptr %191, ptr %193, align 8
  %194 = load ptr, ptr %12, align 8
  %195 = call i32 @php_libxml_increment_doc_ref(ptr noundef %194, ptr noundef null)
  br label %196

196:                                              ; preds = %188, %183, %178
  %197 = load ptr, ptr %7, align 8
  %198 = load ptr, ptr %9, align 8
  %199 = call ptr @xmlAddChild(ptr noundef %197, ptr noundef %198)
  %200 = load ptr, ptr %9, align 8
  call void @php_dom_reconcile_attribute_namespace_after_insertion(ptr noundef %200)
  %201 = load ptr, ptr %10, align 8
  %202 = icmp ne ptr %201, null
  br i1 %202, label %203, label %209

203:                                              ; preds = %196
  %204 = load ptr, ptr %10, align 8
  %205 = load ptr, ptr %4, align 8
  %206 = load ptr, ptr %11, align 8
  %207 = call zeroext i1 @php_dom_create_object(ptr noundef %204, ptr noundef %205, ptr noundef %206)
  %208 = zext i1 %207 to i32
  store i32 %208, ptr %14, align 4
  br label %214

209:                                              ; preds = %196
  br label %210

210:                                              ; preds = %209
  %211 = load ptr, ptr %4, align 8
  %212 = getelementptr inbounds %struct._zval_struct, ptr %211, i32 0, i32 1
  store i32 1, ptr %212, align 8
  br label %213

213:                                              ; preds = %210
  br label %214

214:                                              ; preds = %213, %203, %167, %119, %84, %52, %25
  ret void
}