; Function Attrs: nounwind uwtable
define hidden void @zim_DOMElement_setAttributeNodeNS(ptr nocapture noundef readonly %0, ptr noundef %1) local_unnamed_addr #0 {
  %3 = alloca ptr, align 8
  %4 = getelementptr inbounds i8, ptr %0, i64 44
  %5 = load i32, ptr %4, align 4
  %6 = load ptr, ptr @dom_attr_class_entry, align 8
  %7 = call i32 (i32, ptr, ...) @zend_parse_parameters(i32 noundef %5, ptr noundef nonnull @.str.10, ptr noundef nonnull %3, ptr noundef %6) #8
  %8 = icmp eq i32 %7, -1
  br i1 %8, label %9, label %12

9:                                                ; preds = %2
  %10 = load ptr, ptr getelementptr inbounds (%struct._zend_executor_globals, ptr @executor_globals, i64 0, i32 50), align 8
  %11 = icmp ne ptr %10, null
  call void @llvm.assume(i1 %11)
  br label %103

12:                                               ; preds = %2
  %13 = getelementptr inbounds i8, ptr %0, i64 32
  %14 = load ptr, ptr %13, align 8
  %15 = getelementptr inbounds i8, ptr %14, i64 -24
  %16 = load ptr, ptr %15, align 8
  %17 = icmp eq ptr %16, null
  br i1 %17, label %18, label %26

18:                                               ; preds = %12
  %19 = getelementptr inbounds i8, ptr %14, i64 16
  %20 = load ptr, ptr %19, align 8
  %21 = getelementptr inbounds i8, ptr %20, i64 8
  %22 = load ptr, ptr %21, align 8
  %23 = getelementptr inbounds i8, ptr %22, i64 24
  call void (ptr, ptr, ...) @zend_throw_error(ptr noundef null, ptr noundef nonnull @.str.5, ptr noundef nonnull %23) #8
  %24 = load ptr, ptr getelementptr inbounds (%struct._zend_executor_globals, ptr @executor_globals, i64 0, i32 50), align 8
  %25 = icmp ne ptr %24, null
  call void @llvm.assume(i1 %25)
  br label %103

26:                                               ; preds = %12
  %27 = load ptr, ptr %16, align 8
  %28 = load ptr, ptr %3, align 8
  %29 = load ptr, ptr %28, align 8
  %30 = getelementptr inbounds i8, ptr %29, i64 -24
  %31 = load ptr, ptr %30, align 8
  %32 = icmp eq ptr %31, null
  br i1 %32, label %33, label %41

33:                                               ; preds = %26
  %34 = getelementptr inbounds i8, ptr %29, i64 16
  %35 = load ptr, ptr %34, align 8
  %36 = getelementptr inbounds i8, ptr %35, i64 8
  %37 = load ptr, ptr %36, align 8
  %38 = getelementptr inbounds i8, ptr %37, i64 24
  call void (ptr, ptr, ...) @zend_throw_error(ptr noundef null, ptr noundef nonnull @.str.5, ptr noundef nonnull %38) #8
  %39 = load ptr, ptr getelementptr inbounds (%struct._zend_executor_globals, ptr @executor_globals, i64 0, i32 50), align 8
  %40 = icmp ne ptr %39, null
  call void @llvm.assume(i1 %40)
  br label %103

41:                                               ; preds = %26
  %42 = load ptr, ptr %31, align 8
  %43 = getelementptr inbounds i8, ptr %42, i64 8
  %44 = load i32, ptr %43, align 8
  %45 = icmp eq i32 %44, 2
  call void @llvm.assume(i1 %45)
  %46 = getelementptr inbounds i8, ptr %42, i64 64
  %47 = load ptr, ptr %46, align 8
  %48 = icmp eq ptr %47, null
  br i1 %48, label %58, label %49

49:                                               ; preds = %41
  %50 = getelementptr inbounds i8, ptr %27, i64 64
  %51 = load ptr, ptr %50, align 8
  %52 = icmp eq ptr %47, %51
  br i1 %52, label %58, label %53

53:                                               ; preds = %49
  %54 = getelementptr inbounds i8, ptr %14, i64 -16
  %55 = load ptr, ptr %54, align 8
  %56 = call i32 @dom_get_strict_error(ptr noundef %55) #8
  call void @php_dom_throw_error(i32 noundef 4, i32 noundef %56) #8
  %57 = getelementptr inbounds i8, ptr %1, i64 8
  store i32 2, ptr %57, align 8
  br label %103

58:                                               ; preds = %49, %41
  %59 = getelementptr inbounds i8, ptr %42, i64 72
  %60 = load ptr, ptr %59, align 8
  %.not = icmp eq ptr %60, null
  %61 = getelementptr inbounds i8, ptr %42, i64 16
  %62 = load ptr, ptr %61, align 8
  br i1 %.not, label %67, label %63

63:                                               ; preds = %58
  %64 = getelementptr inbounds i8, ptr %60, i64 16
  %65 = load ptr, ptr %64, align 8
  %66 = call ptr @xmlHasNsProp(ptr noundef %27, ptr noundef %62, ptr noundef %65) #8
  br label %69

67:                                               ; preds = %58
  %68 = call ptr @xmlHasProp(ptr noundef %27, ptr noundef %62) #8
  br label %69

69:                                               ; preds = %67, %63
  %.0 = phi ptr [ %66, %63 ], [ %68, %67 ]
  %.not49 = icmp eq ptr %.0, null
  br i1 %.not49, label %82, label %70

70:                                               ; preds = %69
  %71 = getelementptr inbounds i8, ptr %.0, i64 8
  %72 = load i32, ptr %71, align 8
  %.not50 = icmp eq i32 %72, 16
  br i1 %.not50, label %82, label %73

73:                                               ; preds = %70
  %74 = call ptr @php_dom_object_get_data(ptr noundef nonnull %.0) #8
  %.not51 = icmp eq ptr %74, null
  br i1 %.not51, label %81, label %75

75:                                               ; preds = %73
  %76 = load ptr, ptr %74, align 8
  %77 = load ptr, ptr %76, align 8
  %78 = icmp eq ptr %77, %42
  br i1 %78, label %79, label %81

79:                                               ; preds = %75
  %80 = getelementptr inbounds i8, ptr %1, i64 8
  store i32 1, ptr %80, align 8
  br label %103

81:                                               ; preds = %75, %73
  call void @xmlUnlinkNode(ptr noundef nonnull %.0) #8
  br label %82

82:                                               ; preds = %81, %70, %69
  %83 = getelementptr inbounds i8, ptr %42, i64 40
  %84 = load ptr, ptr %83, align 8
  %.not52 = icmp eq ptr %84, null
  br i1 %.not52, label %86, label %85

85:                                               ; preds = %82
  call void @xmlUnlinkNode(ptr noundef nonnull %42) #8
  br label %86

86:                                               ; preds = %85, %82
  %87 = load ptr, ptr %46, align 8
  %88 = icmp eq ptr %87, null
  br i1 %88, label %89, label %97

89:                                               ; preds = %86
  %90 = getelementptr inbounds i8, ptr %27, i64 64
  %91 = load ptr, ptr %90, align 8
  %.not53 = icmp eq ptr %91, null
  br i1 %.not53, label %97, label %92

92:                                               ; preds = %89
  %93 = getelementptr inbounds i8, ptr %14, i64 -16
  %94 = load ptr, ptr %93, align 8
  %95 = getelementptr inbounds i8, ptr %29, i64 -16
  store ptr %94, ptr %95, align 8
  %96 = call i32 @php_libxml_increment_doc_ref(ptr noundef nonnull %30, ptr noundef null) #8
  br label %97

97:                                               ; preds = %92, %89, %86
  %98 = call ptr @xmlAddChild(ptr noundef %27, ptr noundef nonnull %42) #8
  call void @php_dom_reconcile_attribute_namespace_after_insertion(ptr noundef nonnull %42) #8
  br i1 %.not49, label %101, label %99

99:                                               ; preds = %97
  %100 = call zeroext i1 @php_dom_create_object(ptr noundef nonnull %.0, ptr noundef %1, ptr noundef nonnull %15) #8
  br label %103

101:                                              ; preds = %97
  %102 = getelementptr inbounds i8, ptr %1, i64 8
  store i32 1, ptr %102, align 8
  br label %103

103:                                              ; preds = %101, %99, %79, %53, %33, %18, %9
  ret void
}